target datalayout = "e-m:e-p270:32:32-p271:32:32-p272:64:64-i64:64-i128:128-f80:128-n8:16:32:64-S128"
target triple = "x86_64-pc-linux-gnu"

; Function Attrs: nounwind uwtable
define i32 @ossl_encode_der_length(ptr noundef %0, i64 noundef %1) #0 {
  %3 = alloca i32, align 4
  %4 = alloca ptr, align 8
  %5 = alloca i64, align 8
  store ptr %0, ptr %4, align 8, !tbaa !3
  store i64 %1, ptr %5, align 8, !tbaa !8
  %6 = load i64, ptr %5, align 8, !tbaa !8
  %7 = icmp ugt i64 %6, 65535
  br i1 %7, label %8, label %9

8:                                                ; preds = %2
  store i32 0, ptr %3, align 4
  br label %39

9:                                                ; preds = %2
  %10 = load i64, ptr %5, align 8, !tbaa !8
  %11 = icmp ugt i64 %10, 255
  br i1 %11, label %12, label %23

12:                                               ; preds = %9
  %13 = load ptr, ptr %4, align 8, !tbaa !3
  %14 = call i32 @WPACKET_put_bytes__(ptr noundef %13, i64 noundef 130, i64 noundef 1)
  %15 = icmp ne i32 %14, 0
  br i1 %15, label %16, label %21

16:                                               ; preds = %12
  %17 = load ptr, ptr %4, align 8, !tbaa !3
  %18 = load i64, ptr %5, align 8, !tbaa !8
  %19 = call i32 @WPACKET_put_bytes__(ptr noundef %17, i64 noundef %18, i64 noundef 2)
  %20 = icmp ne i32 %19, 0
  br i1 %20, label %22, label %21

21:                                               ; preds = %16, %12
  store i32 0, ptr %3, align 4
  br label %39

22:                                               ; preds = %16
  br label %38

23:                                               ; preds = %9
  %24 = load i64, ptr %5, align 8, !tbaa !8
  %25 = icmp ugt i64 %24, 127
  br i1 %25, label %26, label %31

26:                                               ; preds = %23
  %27 = load ptr, ptr %4, align 8, !tbaa !3
  %28 = call i32 @WPACKET_put_bytes__(ptr noundef %27, i64 noundef 129, i64 noundef 1)
  %29 = icmp ne i32 %28, 0
  br i1 %29, label %31, label %30

30:                                               ; preds = %26
  store i32 0, ptr %3, align 4
  br label %39

31:                                               ; preds = %26, %23
  %32 = load ptr, ptr %4, align 8, !tbaa !3
  %33 = load i64, ptr %5, align 8, !tbaa !8
  %34 = call i32 @WPACKET_put_bytes__(ptr noundef %32, i64 noundef %33, i64 noundef 1)
  %35 = icmp ne i32 %34, 0
  br i1 %35, label %37, label %36

36:                                               ; preds = %31
  store i32 0, ptr %3, align 4
  br label %39

37:                                               ; preds = %31
  br label %38

38:                                               ; preds = %37, %22
  store i32 1, ptr %3, align 4
  br label %39

39:                                               ; preds = %38, %36, %30, %21, %8
  %40 = load i32, ptr %3, align 4
  ret i32 %40
}

; Function Attrs: nounwind uwtable
define i32 @ossl_encode_der_integer(ptr noundef %0, ptr noundef %1) #0 {
  %3 = alloca i32, align 4
  %4 = alloca ptr, align 8
  %5 = alloca ptr, align 8
  %6 = alloca ptr, align 8
  %7 = alloca i64, align 8
  %8 = alloca i32, align 4
  store ptr %0, ptr %4, align 8, !tbaa !3
  store ptr %1, ptr %5, align 8, !tbaa !10
  call void @llvm.lifetime.start.p0(i64 8, ptr %6) #5
  call void @llvm.lifetime.start.p0(i64 8, ptr %7) #5
  %9 = load ptr, ptr %5, align 8, !tbaa !10
  %10 = call i32 @BN_is_negative(ptr noundef %9)
  %11 = icmp ne i32 %10, 0
  br i1 %11, label %12, label %13

12:                                               ; preds = %2
  store i32 0, ptr %3, align 4
  store i32 1, ptr %8, align 4
  br label %55

13:                                               ; preds = %2
  %14 = load ptr, ptr %5, align 8, !tbaa !10
  %15 = call i32 @BN_num_bits(ptr noundef %14)
  %16 = sdiv i32 %15, 8
  %17 = add nsw i32 %16, 1
  %18 = sext i32 %17 to i64
  store i64 %18, ptr %7, align 8, !tbaa !8
  %19 = load ptr, ptr %4, align 8, !tbaa !3
  %20 = call i32 @WPACKET_start_sub_packet(ptr noundef %19)
  %21 = icmp ne i32 %20, 0
  br i1 %21, label %22, label %40

22:                                               ; preds = %13
  %23 = load ptr, ptr %4, align 8, !tbaa !3
  %24 = call i32 @WPACKET_put_bytes__(ptr noundef %23, i64 noundef 2, i64 noundef 1)
  %25 = icmp ne i32 %24, 0
  br i1 %25, label %26, label %40

26:                                               ; preds = %22
  %27 = load ptr, ptr %4, align 8, !tbaa !3
  %28 = load i64, ptr %7, align 8, !tbaa !8
  %29 = call i32 @ossl_encode_der_length(ptr noundef %27, i64 noundef %28)
  %30 = icmp ne i32 %29, 0
  br i1 %30, label %31, label %40

31:                                               ; preds = %26
  %32 = load ptr, ptr %4, align 8, !tbaa !3
  %33 = load i64, ptr %7, align 8, !tbaa !8
  %34 = call i32 @WPACKET_allocate_bytes(ptr noundef %32, i64 noundef %33, ptr noundef %6)
  %35 = icmp ne i32 %34, 0
  br i1 %35, label %36, label %40

36:                                               ; preds = %31
  %37 = load ptr, ptr %4, align 8, !tbaa !3
  %38 = call i32 @WPACKET_close(ptr noundef %37)
  %39 = icmp ne i32 %38, 0
  br i1 %39, label %41, label %40

40:                                               ; preds = %36, %31, %26, %22, %13
  store i32 0, ptr %3, align 4
  store i32 1, ptr %8, align 4
  br label %55

41:                                               ; preds = %36
  %42 = load ptr, ptr %6, align 8, !tbaa !12
  %43 = icmp ne ptr %42, null
  br i1 %43, label %44, label %54

44:                                               ; preds = %41
  %45 = load ptr, ptr %5, align 8, !tbaa !10
  %46 = load ptr, ptr %6, align 8, !tbaa !12
  %47 = load i64, ptr %7, align 8, !tbaa !8
  %48 = trunc i64 %47 to i32
  %49 = call i32 @BN_bn2binpad(ptr noundef %45, ptr noundef %46, i32 noundef %48)
  %50 = load i64, ptr %7, align 8, !tbaa !8
  %51 = trunc i64 %50 to i32
  %52 = icmp ne i32 %49, %51
  br i1 %52, label %53, label %54

53:                                               ; preds = %44
  store i32 0, ptr %3, align 4
  store i32 1, ptr %8, align 4
  br label %55

54:                                               ; preds = %44, %41
  store i32 1, ptr %3, align 4
  store i32 1, ptr %8, align 4
  br label %55

55:                                               ; preds = %54, %53, %40, %12
  call void @llvm.lifetime.end.p0(i64 8, ptr %7) #5
  call void @llvm.lifetime.end.p0(i64 8, ptr %6) #5
  %56 = load i32, ptr %3, align 4
  ret i32 %56
}