; Function Attrs: nounwind uwtable
define range(i32 0, 2) i32 @ossl_encode_der_integer(ptr noundef %0, ptr noundef %1) local_unnamed_addr #0 {
  %3 = alloca ptr, align 8
  call void @llvm.lifetime.start.p0(i64 8, ptr nonnull %3) #4
  %4 = tail call i32 @BN_is_negative(ptr noundef %1) #4
  %.not = icmp eq i32 %4, 0
  br i1 %.not, label %5, label %ossl_encode_der_length.exit.thread

5:                                                ; preds = %2
  %6 = tail call i32 @BN_num_bits(ptr noundef %1) #4
  %7 = sdiv i32 %6, 8
  %8 = add nsw i32 %7, 1
  %9 = sext i32 %8 to i64
  %10 = tail call i32 @WPACKET_start_sub_packet(ptr noundef %0) #4
  %.not13 = icmp eq i32 %10, 0
  br i1 %.not13, label %ossl_encode_der_length.exit.thread, label %11

11:                                               ; preds = %5
  %12 = tail call i32 @WPACKET_put_bytes__(ptr noundef %0, i64 noundef 2, i64 noundef 1) #4
  %.not14 = icmp eq i32 %12, 0
  %13 = icmp ugt i32 %8, 65535
  %or.cond = select i1 %.not14, i1 true, i1 %13
  br i1 %or.cond, label %ossl_encode_der_length.exit.thread, label %14

14:                                               ; preds = %11
  %15 = icmp samesign ugt i32 %8, 255
  br i1 %15, label %16, label %20

16:                                               ; preds = %14
  %17 = tail call i32 @WPACKET_put_bytes__(ptr noundef %0, i64 noundef 130, i64 noundef 1) #4
  %.not11.i = icmp eq i32 %17, 0
  br i1 %.not11.i, label %ossl_encode_der_length.exit.thread, label %18

18:                                               ; preds = %16
  %19 = tail call i32 @WPACKET_put_bytes__(ptr noundef %0, i64 noundef %9, i64 noundef 2) #4
  %.not12.i = icmp eq i32 %19, 0
  br i1 %.not12.i, label %ossl_encode_der_length.exit.thread, label %ossl_encode_der_length.exit

20:                                               ; preds = %14
  %21 = icmp samesign ugt i32 %8, 127
  br i1 %21, label %22, label %24

22:                                               ; preds = %20
  %23 = tail call i32 @WPACKET_put_bytes__(ptr noundef %0, i64 noundef 129, i64 noundef 1) #4
  %.not.i = icmp eq i32 %23, 0
  br i1 %.not.i, label %ossl_encode_der_length.exit.thread, label %24

24:                                               ; preds = %22, %20
  %25 = tail call i32 @WPACKET_put_bytes__(ptr noundef %0, i64 noundef %9, i64 noundef 1) #4
  %.not10.i = icmp eq i32 %25, 0
  br i1 %.not10.i, label %ossl_encode_der_length.exit.thread, label %ossl_encode_der_length.exit

ossl_encode_der_length.exit:                      ; preds = %24, %18
  %26 = call i32 @WPACKET_allocate_bytes(ptr noundef %0, i64 noundef %9, ptr noundef nonnull %3) #4
  %.not16 = icmp eq i32 %26, 0
  br i1 %.not16, label %ossl_encode_der_length.exit.thread, label %27

27:                                               ; preds = %ossl_encode_der_length.exit
  %28 = call i32 @WPACKET_close(ptr noundef %0) #4
  %.not17 = icmp eq i32 %28, 0
  br i1 %.not17, label %ossl_encode_der_length.exit.thread, label %29

29:                                               ; preds = %27
  %30 = load ptr, ptr %3, align 8, !tbaa !3
  %.not18 = icmp eq ptr %30, null
  br i1 %.not18, label %33, label %31

31:                                               ; preds = %29
  %32 = call i32 @BN_bn2binpad(ptr noundef %1, ptr noundef nonnull %30, i32 noundef %8) #4
  %.not19 = icmp eq i32 %32, %8
  br i1 %.not19, label %33, label %ossl_encode_der_length.exit.thread

33:                                               ; preds = %31, %29
  br label %ossl_encode_der_length.exit.thread

ossl_encode_der_length.exit.thread:               ; preds = %24, %22, %16, %18, %31, %5, %11, %ossl_encode_der_length.exit, %27, %2, %33
  %.0 = phi i32 [ 1, %33 ], [ 0, %2 ], [ 0, %27 ], [ 0, %ossl_encode_der_length.exit ], [ 0, %11 ], [ 0, %5 ], [ 0, %31 ], [ 0, %18 ], [ 0, %16 ], [ 0, %22 ], [ 0, %24 ]
  call void @llvm.lifetime.end.p0(i64 8, ptr nonnull %3) #4
  ret i32 %.0
}